target datalayout = "e-m:e-p270:32:32-p271:32:32-p272:64:64-i64:64-i128:128-f80:128-n8:16:32:64-S128"
target triple = "x86_64-pc-linux-gnu"

%struct.lean_object = type { i32, i32 }
%struct.lean_ctor_object = type { %struct.lean_object, [0 x ptr] }

; Function Attrs: inlinehint nounwind uwtable
define internal ptr @lean_to_ctor(ptr noundef %0) #0 {
  %2 = alloca ptr, align 8
  store ptr %0, ptr %2, align 8, !tbaa !4
  %3 = load ptr, ptr %2, align 8, !tbaa !4
  ret ptr %3
}

; Function Attrs: inlinehint nounwind uwtable
define internal ptr @lean_ctor_obj_cptr(ptr noundef %0) #0 {
  %2 = alloca ptr, align 8
  store ptr %0, ptr %2, align 8, !tbaa !4
  %3 = load ptr, ptr %2, align 8, !tbaa !4
  %4 = call ptr @lean_to_ctor(ptr noundef %3)
  %5 = getelementptr inbounds nuw %struct.lean_ctor_object, ptr %4, i32 0, i32 1
  %6 = getelementptr inbounds [0 x ptr], ptr %5, i64 0, i64 0
  ret ptr %6
}

; Function Attrs: inlinehint nounwind uwtable
define internal zeroext i8 @lean_ptr_tag(ptr noundef %0) #0 {
  %2 = alloca ptr, align 8
  store ptr %0, ptr %2, align 8, !tbaa !4
  %3 = load ptr, ptr %2, align 8, !tbaa !4
  %4 = getelementptr inbounds nuw %struct.lean_object, ptr %3, i32 0, i32 1
  %5 = load i32, ptr %4, align 4
  %6 = lshr i32 %5, 24
  %7 = trunc i32 %6 to i8
  ret i8 %7
}

; Function Attrs: inlinehint nounwind uwtable
define internal i64 @lean_unbox(ptr noundef %0) #0 {
  %2 = alloca ptr, align 8
  store ptr %0, ptr %2, align 8, !tbaa !4
  %3 = load ptr, ptr %2, align 8, !tbaa !4
  %4 = ptrtoint ptr %3 to i64
  %5 = lshr i64 %4, 1
  ret i64 %5
}

; Function Attrs: alwaysinline nounwind uwtable
define internal zeroext i1 @lean_is_scalar(ptr noundef %0) #1 {
  %2 = alloca ptr, align 8
  store ptr %0, ptr %2, align 8, !tbaa !4
  %3 = load ptr, ptr %2, align 8, !tbaa !4
  %4 = ptrtoint ptr %3 to i64
  %5 = and i64 %4, 1
  %6 = icmp eq i64 %5, 1
  ret i1 %6
}

; Function Attrs: inlinehint nounwind uwtable
define internal i64 @lean_uint64_of_nat(ptr noundef %0) #0 {
  %2 = alloca ptr, align 8
  store ptr %0, ptr %2, align 8, !tbaa !4
  %3 = load ptr, ptr %2, align 8, !tbaa !4
  %4 = call zeroext i1 @lean_is_scalar(ptr noundef %3)
  br i1 %4, label %5, label %8

5:                                                ; preds = %1
  %6 = load ptr, ptr %2, align 8, !tbaa !4
  %7 = call i64 @lean_unbox(ptr noundef %6)
  br label %11

8:                                                ; preds = %1
  %9 = load ptr, ptr %2, align 8, !tbaa !4
  %10 = call i64 @lean_uint64_of_big_nat(ptr noundef %9)
  br label %11

11:                                               ; preds = %8, %5
  %12 = phi i64 [ %7, %5 ], [ %10, %8 ]
  ret i64 %12
}

; Function Attrs: inlinehint nounwind uwtable
define internal ptr @lean_ctor_get(ptr noundef %0, i32 noundef %1) #0 {
  %3 = alloca ptr, align 8
  %4 = alloca i32, align 4
  store ptr %0, ptr %3, align 8, !tbaa !4
  store i32 %1, ptr %4, align 4, !tbaa !11
  %5 = load ptr, ptr %3, align 8, !tbaa !4
  %6 = call ptr @lean_ctor_obj_cptr(ptr noundef %5)
  %7 = load i32, ptr %4, align 4, !tbaa !11
  %8 = zext i32 %7 to i64
  %9 = getelementptr inbounds nuw ptr, ptr %6, i64 %8
  %10 = load ptr, ptr %9, align 8, !tbaa !4
  ret ptr %10
}

; Function Attrs: inlinehint nounwind uwtable
define internal i32 @lean_obj_tag(ptr noundef %0) #0 {
  %2 = alloca i32, align 4
  %3 = alloca ptr, align 8
  store ptr %0, ptr %3, align 8, !tbaa !4
  %4 = load ptr, ptr %3, align 8, !tbaa !4
  %5 = call zeroext i1 @lean_is_scalar(ptr noundef %4)
  br i1 %5, label %6, label %10

6:                                                ; preds = %1
  %7 = load ptr, ptr %3, align 8, !tbaa !4
  %8 = call i64 @lean_unbox(ptr noundef %7)
  %9 = trunc i64 %8 to i32
  store i32 %9, ptr %2, align 4
  br label %14

10:                                               ; preds = %1
  %11 = load ptr, ptr %3, align 8, !tbaa !4
  %12 = call zeroext i8 @lean_ptr_tag(ptr noundef %11)
  %13 = zext i8 %12 to i32
  store i32 %13, ptr %2, align 4
  br label %14

14:                                               ; preds = %10, %6
  %15 = load i32, ptr %2, align 4
  ret i32 %15
}

; Function Attrs: nounwind uwtable
define i64 @l_Lean_HeadIndex_hash(ptr noundef %0) #2 {
  %2 = alloca i64, align 8
  %3 = alloca ptr, align 8
  %4 = alloca ptr, align 8
  %5 = alloca i64, align 8
  %6 = alloca i64, align 8
  %7 = alloca i64, align 8
  %8 = alloca ptr, align 8
  %9 = alloca i64, align 8
  %10 = alloca i64, align 8
  %11 = alloca i64, align 8
  %12 = alloca ptr, align 8
  %13 = alloca i64, align 8
  %14 = alloca i64, align 8
  %15 = alloca i64, align 8
  %16 = alloca ptr, align 8
  %17 = alloca ptr, align 8
  %18 = alloca i64, align 8
  %19 = alloca i64, align 8
  %20 = alloca i64, align 8
  %21 = alloca i64, align 8
  %22 = alloca i64, align 8
  %23 = alloca ptr, align 8
  %24 = alloca i64, align 8
  %25 = alloca i64, align 8
  %26 = alloca i64, align 8
  %27 = alloca i64, align 8
  %28 = alloca i64, align 8
  %29 = alloca i64, align 8
  store ptr %0, ptr %3, align 8, !tbaa !4
  br label %30

30:                                               ; preds = %1
  %31 = load ptr, ptr %3, align 8, !tbaa !4
  %32 = call i32 @lean_obj_tag(ptr noundef %31)
  switch i32 %32, label %89 [
    i32 0, label %33
    i32 1, label %42
    i32 2, label %51
    i32 3, label %60
    i32 4, label %76
    i32 5, label %85
    i32 6, label %87
  ]

33:                                               ; preds = %30
  call void @llvm.lifetime.start.p0(i64 8, ptr %4) #7
  call void @llvm.lifetime.start.p0(i64 8, ptr %5) #7
  call void @llvm.lifetime.start.p0(i64 8, ptr %6) #7
  call void @llvm.lifetime.start.p0(i64 8, ptr %7) #7
  %34 = load ptr, ptr %3, align 8, !tbaa !4
  %35 = call ptr @lean_ctor_get(ptr noundef %34, i32 noundef 0)
  store ptr %35, ptr %4, align 8, !tbaa !4
  store i64 11, ptr %5, align 8, !tbaa !8
  %36 = load ptr, ptr %4, align 8, !tbaa !4
  %37 = call i64 @l___private_Lean_Expr_0__Lean_hashFVarId____x40_Lean_Expr___hyg_1730_(ptr noundef %36)
  store i64 %37, ptr %6, align 8, !tbaa !8
  %38 = load i64, ptr %5, align 8, !tbaa !8
  %39 = load i64, ptr %6, align 8, !tbaa !8
  %40 = call i64 @lean_uint64_mix_hash(i64 noundef %38, i64 noundef %39)
  store i64 %40, ptr %7, align 8, !tbaa !8
  %41 = load i64, ptr %7, align 8, !tbaa !8
  store i64 %41, ptr %2, align 8
  call void @llvm.lifetime.end.p0(i64 8, ptr %7) #7
  call void @llvm.lifetime.end.p0(i64 8, ptr %6) #7
  call void @llvm.lifetime.end.p0(i64 8, ptr %5) #7
  call void @llvm.lifetime.end.p0(i64 8, ptr %4) #7
  br label %91

42:                                               ; preds = %30
  call void @llvm.lifetime.start.p0(i64 8, ptr %8) #7
  call void @llvm.lifetime.start.p0(i64 8, ptr %9) #7
  call void @llvm.lifetime.start.p0(i64 8, ptr %10) #7
  call void @llvm.lifetime.start.p0(i64 8, ptr %11) #7
  %43 = load ptr, ptr %3, align 8, !tbaa !4
  %44 = call ptr @lean_ctor_get(ptr noundef %43, i32 noundef 0)
  store ptr %44, ptr %8, align 8, !tbaa !4
  store i64 13, ptr %9, align 8, !tbaa !8
  %45 = load ptr, ptr %8, align 8, !tbaa !4
  %46 = call i64 @l___private_Lean_Expr_0__Lean_hashMVarId____x40_Lean_Expr___hyg_1984_(ptr noundef %45)
  store i64 %46, ptr %10, align 8, !tbaa !8
  %47 = load i64, ptr %9, align 8, !tbaa !8
  %48 = load i64, ptr %10, align 8, !tbaa !8
  %49 = call i64 @lean_uint64_mix_hash(i64 noundef %47, i64 noundef %48)
  store i64 %49, ptr %11, align 8, !tbaa !8
  %50 = load i64, ptr %11, align 8, !tbaa !8
  store i64 %50, ptr %2, align 8
  call void @llvm.lifetime.end.p0(i64 8, ptr %11) #7
  call void @llvm.lifetime.end.p0(i64 8, ptr %10) #7
  call void @llvm.lifetime.end.p0(i64 8, ptr %9) #7
  call void @llvm.lifetime.end.p0(i64 8, ptr %8) #7
  br label %91

51:                                               ; preds = %30
  call void @llvm.lifetime.start.p0(i64 8, ptr %12) #7
  call void @llvm.lifetime.start.p0(i64 8, ptr %13) #7
  call void @llvm.lifetime.start.p0(i64 8, ptr %14) #7
  call void @llvm.lifetime.start.p0(i64 8, ptr %15) #7
  %52 = load ptr, ptr %3, align 8, !tbaa !4
  %53 = call ptr @lean_ctor_get(ptr noundef %52, i32 noundef 0)
  store ptr %53, ptr %12, align 8, !tbaa !4
  store i64 17, ptr %13, align 8, !tbaa !8
  %54 = load ptr, ptr %12, align 8, !tbaa !4
  %55 = call i64 @l_Lean_Name_hash___override(ptr noundef %54)
  store i64 %55, ptr %14, align 8, !tbaa !8
  %56 = load i64, ptr %13, align 8, !tbaa !8
  %57 = load i64, ptr %14, align 8, !tbaa !8
  %58 = call i64 @lean_uint64_mix_hash(i64 noundef %56, i64 noundef %57)
  store i64 %58, ptr %15, align 8, !tbaa !8
  %59 = load i64, ptr %15, align 8, !tbaa !8
  store i64 %59, ptr %2, align 8
  call void @llvm.lifetime.end.p0(i64 8, ptr %15) #7
  call void @llvm.lifetime.end.p0(i64 8, ptr %14) #7
  call void @llvm.lifetime.end.p0(i64 8, ptr %13) #7
  call void @llvm.lifetime.end.p0(i64 8, ptr %12) #7
  br label %91

60:                                               ; preds = %30
  call void @llvm.lifetime.start.p0(i64 8, ptr %16) #7
  call void @llvm.lifetime.start.p0(i64 8, ptr %17) #7
  call void @llvm.lifetime.start.p0(i64 8, ptr %18) #7
  call void @llvm.lifetime.start.p0(i64 8, ptr %19) #7
  call void @llvm.lifetime.start.p0(i64 8, ptr %20) #7
  call void @llvm.lifetime.start.p0(i64 8, ptr %21) #7
  call void @llvm.lifetime.start.p0(i64 8, ptr %22) #7
  %61 = load ptr, ptr %3, align 8, !tbaa !4
  %62 = call ptr @lean_ctor_get(ptr noundef %61, i32 noundef 0)
  store ptr %62, ptr %16, align 8, !tbaa !4
  %63 = load ptr, ptr %3, align 8, !tbaa !4
  %64 = call ptr @lean_ctor_get(ptr noundef %63, i32 noundef 1)
  store ptr %64, ptr %17, align 8, !tbaa !4
  store i64 19, ptr %18, align 8, !tbaa !8
  %65 = load ptr, ptr %16, align 8, !tbaa !4
  %66 = call i64 @l_Lean_Name_hash___override(ptr noundef %65)
  store i64 %66, ptr %19, align 8, !tbaa !8
  %67 = load ptr, ptr %17, align 8, !tbaa !4
  %68 = call i64 @lean_uint64_of_nat(ptr noundef %67)
  store i64 %68, ptr %20, align 8, !tbaa !8
  %69 = load i64, ptr %19, align 8, !tbaa !8
  %70 = load i64, ptr %20, align 8, !tbaa !8
  %71 = call i64 @lean_uint64_mix_hash(i64 noundef %69, i64 noundef %70)
  store i64 %71, ptr %21, align 8, !tbaa !8
  %72 = load i64, ptr %18, align 8, !tbaa !8
  %73 = load i64, ptr %21, align 8, !tbaa !8
  %74 = call i64 @lean_uint64_mix_hash(i64 noundef %72, i64 noundef %73)
  store i64 %74, ptr %22, align 8, !tbaa !8
  %75 = load i64, ptr %22, align 8, !tbaa !8
  store i64 %75, ptr %2, align 8
  call void @llvm.lifetime.end.p0(i64 8, ptr %22) #7
  call void @llvm.lifetime.end.p0(i64 8, ptr %21) #7
  call void @llvm.lifetime.end.p0(i64 8, ptr %20) #7
  call void @llvm.lifetime.end.p0(i64 8, ptr %19) #7
  call void @llvm.lifetime.end.p0(i64 8, ptr %18) #7
  call void @llvm.lifetime.end.p0(i64 8, ptr %17) #7
  call void @llvm.lifetime.end.p0(i64 8, ptr %16) #7
  br label %91

76:                                               ; preds = %30
  call void @llvm.lifetime.start.p0(i64 8, ptr %23) #7
  call void @llvm.lifetime.start.p0(i64 8, ptr %24) #7
  call void @llvm.lifetime.start.p0(i64 8, ptr %25) #7
  call void @llvm.lifetime.start.p0(i64 8, ptr %26) #7
  %77 = load ptr, ptr %3, align 8, !tbaa !4
  %78 = call ptr @lean_ctor_get(ptr noundef %77, i32 noundef 0)
  store ptr %78, ptr %23, align 8, !tbaa !4
  store i64 23, ptr %24, align 8, !tbaa !8
  %79 = load ptr, ptr %23, align 8, !tbaa !4
  %80 = call i64 @l_Lean_Literal_hash(ptr noundef %79)
  store i64 %80, ptr %25, align 8, !tbaa !8
  %81 = load i64, ptr %24, align 8, !tbaa !8
  %82 = load i64, ptr %25, align 8, !tbaa !8
  %83 = call i64 @lean_uint64_mix_hash(i64 noundef %81, i64 noundef %82)
  store i64 %83, ptr %26, align 8, !tbaa !8
  %84 = load i64, ptr %26, align 8, !tbaa !8
  store i64 %84, ptr %2, align 8
  call void @llvm.lifetime.end.p0(i64 8, ptr %26) #7
  call void @llvm.lifetime.end.p0(i64 8, ptr %25) #7
  call void @llvm.lifetime.end.p0(i64 8, ptr %24) #7
  call void @llvm.lifetime.end.p0(i64 8, ptr %23) #7
  br label %91

85:                                               ; preds = %30
  call void @llvm.lifetime.start.p0(i64 8, ptr %27) #7
  store i64 29, ptr %27, align 8, !tbaa !8
  %86 = load i64, ptr %27, align 8, !tbaa !8
  store i64 %86, ptr %2, align 8
  call void @llvm.lifetime.end.p0(i64 8, ptr %27) #7
  br label %91

87:                                               ; preds = %30
  call void @llvm.lifetime.start.p0(i64 8, ptr %28) #7
  store i64 31, ptr %28, align 8, !tbaa !8
  %88 = load i64, ptr %28, align 8, !tbaa !8
  store i64 %88, ptr %2, align 8
  call void @llvm.lifetime.end.p0(i64 8, ptr %28) #7
  br label %91

89:                                               ; preds = %30
  call void @llvm.lifetime.start.p0(i64 8, ptr %29) #7
  store i64 37, ptr %29, align 8, !tbaa !8
  %90 = load i64, ptr %29, align 8, !tbaa !8
  store i64 %90, ptr %2, align 8
  call void @llvm.lifetime.end.p0(i64 8, ptr %29) #7
  br label %91

91:                                               ; preds = %89, %87, %85, %76, %60, %51, %42, %33
  %92 = load i64, ptr %2, align 8
  ret i64 %92
}