; Function Attrs: nounwind uwtable
define i64 @l_Lean_HeadIndex_hash(ptr noundef %0) local_unnamed_addr #0 {
  %2 = ptrtoint ptr %0 to i64
  %3 = and i64 %2, 1
  %.not.i = icmp eq i64 %3, 0
  br i1 %.not.i, label %7, label %4

4:                                                ; preds = %1
  %5 = lshr i64 %2, 1
  %6 = trunc i64 %5 to i32
  br label %lean_obj_tag.exit

7:                                                ; preds = %1
  %8 = getelementptr i8, ptr %0, i64 4
  %.val.i = load i32, ptr %8, align 4
  %9 = lshr i32 %.val.i, 24
  br label %lean_obj_tag.exit

lean_obj_tag.exit:                                ; preds = %4, %7
  %.0.i = phi i32 [ %6, %4 ], [ %9, %7 ]
  switch i32 %.0.i, label %46 [
    i32 0, label %10
    i32 1, label %15
    i32 2, label %20
    i32 3, label %25
    i32 4, label %40
    i32 5, label %47
    i32 6, label %45
  ]

10:                                               ; preds = %lean_obj_tag.exit
  %11 = getelementptr inbounds nuw i8, ptr %0, i64 8
  %12 = load ptr, ptr %11, align 8, !tbaa !4
  %13 = tail call i64 @l___private_Lean_Expr_0__Lean_hashFVarId____x40_Lean_Expr___hyg_1730_(ptr noundef %12) #3
  %14 = tail call i64 @lean_uint64_mix_hash(i64 noundef 11, i64 noundef %13) #3
  br label %47

15:                                               ; preds = %lean_obj_tag.exit
  %16 = getelementptr inbounds nuw i8, ptr %0, i64 8
  %17 = load ptr, ptr %16, align 8, !tbaa !4
  %18 = tail call i64 @l___private_Lean_Expr_0__Lean_hashMVarId____x40_Lean_Expr___hyg_1984_(ptr noundef %17) #3
  %19 = tail call i64 @lean_uint64_mix_hash(i64 noundef 13, i64 noundef %18) #3
  br label %47

20:                                               ; preds = %lean_obj_tag.exit
  %21 = getelementptr inbounds nuw i8, ptr %0, i64 8
  %22 = load ptr, ptr %21, align 8, !tbaa !4
  %23 = tail call i64 @l_Lean_Name_hash___override(ptr noundef %22) #3
  %24 = tail call i64 @lean_uint64_mix_hash(i64 noundef 17, i64 noundef %23) #3
  br label %47

25:                                               ; preds = %lean_obj_tag.exit
  %26 = getelementptr inbounds nuw i8, ptr %0, i64 8
  %27 = load ptr, ptr %26, align 8, !tbaa !4
  %28 = getelementptr inbounds nuw i8, ptr %0, i64 16
  %29 = load ptr, ptr %28, align 8, !tbaa !4
  %30 = tail call i64 @l_Lean_Name_hash___override(ptr noundef %27) #3
  %31 = ptrtoint ptr %29 to i64
  %32 = and i64 %31, 1
  %.not.i33 = icmp eq i64 %32, 0
  br i1 %.not.i33, label %35, label %33

33:                                               ; preds = %25
  %34 = lshr i64 %31, 1
  br label %lean_uint64_of_nat.exit

35:                                               ; preds = %25
  %36 = tail call i64 @lean_uint64_of_big_nat(ptr noundef %29) #3
  br label %lean_uint64_of_nat.exit

lean_uint64_of_nat.exit:                          ; preds = %33, %35
  %37 = phi i64 [ %34, %33 ], [ %36, %35 ]
  %38 = tail call i64 @lean_uint64_mix_hash(i64 noundef %30, i64 noundef %37) #3
  %39 = tail call i64 @lean_uint64_mix_hash(i64 noundef 19, i64 noundef %38) #3
  br label %47

40:                                               ; preds = %lean_obj_tag.exit
  %41 = getelementptr inbounds nuw i8, ptr %0, i64 8
  %42 = load ptr, ptr %41, align 8, !tbaa !4
  %43 = tail call i64 @l_Lean_Literal_hash(ptr noundef %42) #3
  %44 = tail call i64 @lean_uint64_mix_hash(i64 noundef 23, i64 noundef %43) #3
  br label %47

45:                                               ; preds = %lean_obj_tag.exit
  br label %47

46:                                               ; preds = %lean_obj_tag.exit
  br label %47

47:                                               ; preds = %lean_obj_tag.exit, %46, %45, %40, %lean_uint64_of_nat.exit, %20, %15, %10
  %.0 = phi i64 [ 37, %46 ], [ 31, %45 ], [ %44, %40 ], [ %39, %lean_uint64_of_nat.exit ], [ %24, %20 ], [ %19, %15 ], [ %14, %10 ], [ 29, %lean_obj_tag.exit ]
  ret i64 %.0
}